; Function Attrs: mustprogress nofree norecurse nosync nounwind willreturn memory(read, inaccessiblemem: none) uwtable
define internal range(i32 16, 21) i32 @HIDAPI_DriverXbox360_GetJoystickCapabilities(ptr noundef readonly captures(none) %0, ptr readnone captures(none) %1) #2 {
  %3 = getelementptr inbounds nuw i8, ptr %0, i64 112
  %4 = load ptr, ptr %3, align 8
  %5 = getelementptr inbounds nuw i8, ptr %4, i64 20
  %6 = load i8, ptr %5, align 4, !range !3, !noundef !4
  %7 = trunc nuw i8 %6 to i1
  %spec.select = select i1 %7, i32 20, i32 16
  ret i32 %spec.select
}